target datalayout = "e-m:e-p270:32:32-p271:32:32-p272:64:64-i64:64-i128:128-f80:128-n8:16:32:64-S128"
target triple = "x86_64-pc-linux-gnu"

%struct.LogicalRepRelMapEntry = type { %struct.LogicalRepRelation, i8, i32, ptr, ptr, i8, i32, i8, i64 }
%struct.LogicalRepRelation = type { i32, ptr, ptr, i32, ptr, ptr, i8, i8, ptr }
%struct.RelationData = type { %struct.RelFileLocator, ptr, i32, i32, i8, i8, i8, i8, i8, i32, i32, i32, i32, ptr, ptr, i32, %struct.LockInfoData, ptr, ptr, ptr, ptr, ptr, i8, ptr, ptr, ptr, ptr, ptr, ptr, i32, ptr, i8, ptr, ptr, i32, i8, i32, ptr, i8, ptr, ptr, ptr, ptr, ptr, ptr, ptr, i32, ptr, ptr, ptr, ptr, ptr, ptr, ptr, ptr, ptr, ptr, ptr, ptr, ptr, ptr, ptr, ptr, ptr, ptr, ptr, i32, i8, ptr }
%struct.RelFileLocator = type { i32, i32, i32 }
%struct.LockInfoData = type { %struct.LockRelId }
%struct.LockRelId = type { i32, i32 }
%struct.FormData_pg_class = type { i32, %struct.nameData, i32, i32, i32, i32, i32, i32, i32, i32, float, i32, i32, i8, i8, i8, i8, i16, i16, i8, i8, i8, i8, i8, i8, i8, i8, i32, i32, i32 }
%struct.nameData = type { [64 x i8] }

@.str.3 = private unnamed_addr constant [9 x i8] c"worker.c\00", align 1
@.str.52 = private unnamed_addr constant [107 x i8] c"publisher did not send replica identity column expected by the logical replication target relation \22%s.%s\22\00", align 1
@__func__.check_relation_updatable = private unnamed_addr constant [25 x i8] c"check_relation_updatable\00", align 1
@.str.53 = private unnamed_addr constant [154 x i8] c"logical replication target relation \22%s.%s\22 has neither REPLICA IDENTITY index nor PRIMARY KEY and published relation does not have REPLICA IDENTITY FULL\00", align 1

; Function Attrs: nounwind uwtable
define internal void @check_relation_updatable(ptr noundef %0) #0 {
  %2 = alloca ptr, align 8
  store ptr %0, ptr %2, align 8
  %3 = load ptr, ptr %2, align 8
  %4 = getelementptr inbounds nuw %struct.LogicalRepRelMapEntry, ptr %3, i32 0, i32 3
  %5 = load ptr, ptr %4, align 8
  %6 = getelementptr inbounds nuw %struct.RelationData, ptr %5, i32 0, i32 13
  %7 = load ptr, ptr %6, align 8
  %8 = getelementptr inbounds nuw %struct.FormData_pg_class, ptr %7, i32 0, i32 16
  %9 = load i8, ptr %8, align 1
  %10 = sext i8 %9 to i32
  %11 = icmp eq i32 %10, 112
  br i1 %11, label %12, label %13

12:                                               ; preds = %1
  br label %62

13:                                               ; preds = %1
  %14 = load ptr, ptr %2, align 8
  %15 = getelementptr inbounds nuw %struct.LogicalRepRelMapEntry, ptr %14, i32 0, i32 5
  %16 = load i8, ptr %15, align 8, !range !4, !noundef !5
  %17 = trunc i8 %16 to i1
  br i1 %17, label %18, label %19

18:                                               ; preds = %13
  br label %62

19:                                               ; preds = %13
  %20 = load ptr, ptr %2, align 8
  %21 = getelementptr inbounds nuw %struct.LogicalRepRelMapEntry, ptr %20, i32 0, i32 3
  %22 = load ptr, ptr %21, align 8
  %23 = call i32 @GetRelationIdentityOrPK(ptr noundef %22)
  %24 = icmp ne i32 %23, 0
  br i1 %24, label %25, label %44

25:                                               ; preds = %19
  br label %26

26:                                               ; preds = %25
  br i1 true, label %27, label %29

27:                                               ; preds = %26
  %28 = call zeroext i1 @errstart_cold(i32 noundef 21, ptr noundef null) #13
  br i1 %28, label %31, label %42

29:                                               ; preds = %26
  %30 = call zeroext i1 @errstart(i32 noundef 21, ptr noundef null)
  br i1 %30, label %31, label %42

31:                                               ; preds = %29, %27
  %32 = call i32 @errcode(i32 noundef 325)
  %33 = load ptr, ptr %2, align 8
  %34 = getelementptr inbounds nuw %struct.LogicalRepRelMapEntry, ptr %33, i32 0, i32 0
  %35 = getelementptr inbounds nuw %struct.LogicalRepRelation, ptr %34, i32 0, i32 1
  %36 = load ptr, ptr %35, align 8
  %37 = load ptr, ptr %2, align 8
  %38 = getelementptr inbounds nuw %struct.LogicalRepRelMapEntry, ptr %37, i32 0, i32 0
  %39 = getelementptr inbounds nuw %struct.LogicalRepRelation, ptr %38, i32 0, i32 2
  %40 = load ptr, ptr %39, align 8
  %41 = call i32 (ptr, ...) @errmsg(ptr noundef @.str.52, ptr noundef %36, ptr noundef %40)
  call void @errfinish(ptr noundef @.str.3, i32 noundef 2525, ptr noundef @__func__.check_relation_updatable)
  br label %42

42:                                               ; preds = %31, %29, %27
  unreachable

43:                                               ; No predecessors!
  br label %44

44:                                               ; preds = %43, %19
  br label %45

45:                                               ; preds = %44
  br i1 true, label %46, label %48

46:                                               ; preds = %45
  %47 = call zeroext i1 @errstart_cold(i32 noundef 21, ptr noundef null) #13
  br i1 %47, label %50, label %61

48:                                               ; preds = %45
  %49 = call zeroext i1 @errstart(i32 noundef 21, ptr noundef null)
  br i1 %49, label %50, label %61

50:                                               ; preds = %48, %46
  %51 = call i32 @errcode(i32 noundef 325)
  %52 = load ptr, ptr %2, align 8
  %53 = getelementptr inbounds nuw %struct.LogicalRepRelMapEntry, ptr %52, i32 0, i32 0
  %54 = getelementptr inbounds nuw %struct.LogicalRepRelation, ptr %53, i32 0, i32 1
  %55 = load ptr, ptr %54, align 8
  %56 = load ptr, ptr %2, align 8
  %57 = getelementptr inbounds nuw %struct.LogicalRepRelMapEntry, ptr %56, i32 0, i32 0
  %58 = getelementptr inbounds nuw %struct.LogicalRepRelation, ptr %57, i32 0, i32 2
  %59 = load ptr, ptr %58, align 8
  %60 = call i32 (ptr, ...) @errmsg(ptr noundef @.str.53, ptr noundef %55, ptr noundef %59)
  call void @errfinish(ptr noundef @.str.3, i32 noundef 2534, ptr noundef @__func__.check_relation_updatable)
  br label %61

61:                                               ; preds = %50, %48, %46
  unreachable

62:                                               ; preds = %12, %18
  ret void
}