; Function Attrs: nounwind uwtable
define internal fastcc void @check_relation_updatable(ptr noundef readonly captures(none) %0) unnamed_addr #0 {
  %2 = getelementptr inbounds nuw i8, ptr %0, i64 72
  %3 = load ptr, ptr %2, align 8
  %4 = getelementptr inbounds nuw i8, ptr %3, i64 56
  %5 = load ptr, ptr %4, align 8
  %6 = getelementptr inbounds nuw i8, ptr %5, i64 115
  %7 = load i8, ptr %6, align 1
  %8 = icmp eq i8 %7, 112
  br i1 %8, label %25, label %9

9:                                                ; preds = %1
  %10 = getelementptr inbounds nuw i8, ptr %0, i64 88
  %11 = load i8, ptr %10, align 8, !range !4, !noundef !5
  %12 = trunc nuw i8 %11 to i1
  br i1 %12, label %25, label %13

13:                                               ; preds = %9
  %14 = tail call i32 @GetRelationIdentityOrPK(ptr noundef nonnull %3) #17
  %.not = icmp eq i32 %14, 0
  %15 = tail call zeroext i1 @errstart_cold(i32 noundef 21, ptr noundef null) #18
  tail call void @llvm.assume(i1 %15)
  %16 = tail call i32 @errcode(i32 noundef 325) #17
  %17 = getelementptr inbounds nuw i8, ptr %0, i64 8
  %18 = load ptr, ptr %17, align 8
  %19 = getelementptr inbounds nuw i8, ptr %0, i64 16
  %20 = load ptr, ptr %19, align 8
  br i1 %.not, label %23, label %21

21:                                               ; preds = %13
  %22 = tail call i32 (ptr, ...) @errmsg(ptr noundef nonnull @.str.52, ptr noundef %18, ptr noundef %20) #17
  tail call void @errfinish(ptr noundef nonnull @.str.3, i32 noundef 2525, ptr noundef nonnull @__func__.check_relation_updatable) #17
  unreachable

23:                                               ; preds = %13
  %24 = tail call i32 (ptr, ...) @errmsg(ptr noundef nonnull @.str.53, ptr noundef %18, ptr noundef %20) #17
  tail call void @errfinish(ptr noundef nonnull @.str.3, i32 noundef 2534, ptr noundef nonnull @__func__.check_relation_updatable) #17
  unreachable

25:                                               ; preds = %9, %1
  ret void
}